target datalayout = "e-m:e-p270:32:32-p271:32:32-p272:64:64-i64:64-i128:128-f80:128-n8:16:32:64-S128"
target triple = "x86_64-pc-linux-gnu"

%class.symbol = type { ptr }
%class.u_map = type { %class.map }
%class.map = type { %class.table2map }
%class.table2map = type { %class.core_hashtable.8 }
%class.core_hashtable.8 = type <{ ptr, i32, i32, i32, [4 x i8] }>
%class.obj_map.23 = type { %class.core_hashtable.24 }
%class.core_hashtable.24 = type <{ ptr, i32, i32, i32, [4 x i8] }>
%class.ptr_vector.56 = type { %class.vector.57 }
%class.vector.57 = type { ptr }
%class.svector.86 = type { %class.vector.87 }
%class.vector.87 = type { ptr }
%class.svector.4 = type { %class.vector.5 }
%class.vector.5 = type { ptr }
%class.svector.236 = type { %class.vector.237 }
%class.vector.237 = type { ptr }
%class.ast_manager = type { %class.reslimit, %class.small_object_allocator, %class.family_manager, %class.parray_manager, %class.dependency_manager, %class.parray_manager.274, %class.ptr_vector.277, i32, i8, %class.ast_table, %class.obj_map.23, %class.id_gen, %class.id_gen, ptr, ptr, ptr, ptr, ptr, i32, i8, [3 x i8], %class.u_map, ptr, i8, i8, ptr, %class.symbol, %class.obj_map.281, ptr }
%class.reslimit = type { %"struct.std::atomic", i8, i64, i64, %class.svector.236, %class.ptr_vector.265 }
%"struct.std::atomic" = type { %"struct.std::__atomic_base" }
%"struct.std::__atomic_base" = type { i32 }
%class.ptr_vector.265 = type { %class.vector.266 }
%class.vector.266 = type { ptr }
%class.small_object_allocator = type { [32 x ptr], [32 x ptr], i64 }
%class.family_manager = type { i32, %class.symbol_table, %class.svector.270 }
%class.symbol_table = type { %class.core_hashtable.267, %class.vector.269, %class.svector.86 }
%class.core_hashtable.267 = type <{ ptr, i32, i32, i32, [4 x i8] }>
%class.vector.269 = type { ptr }
%class.svector.270 = type { %class.vector.271 }
%class.vector.271 = type { ptr }
%class.parray_manager = type { ptr, ptr, %class.ptr_vector.272, %class.ptr_vector.272 }
%class.ptr_vector.272 = type { %class.vector.273 }
%class.vector.273 = type { ptr }
%class.dependency_manager = type { ptr, ptr, %class.ptr_vector.56 }
%class.parray_manager.274 = type { ptr, ptr, %class.ptr_vector.275, %class.ptr_vector.275 }
%class.ptr_vector.275 = type { %class.vector.276 }
%class.vector.276 = type { ptr }
%class.ptr_vector.277 = type { %class.vector.278 }
%class.vector.278 = type { ptr }
%class.ast_table = type { %class.chashtable.279 }
%class.chashtable.279 = type { ptr, i32, i32, i32, i32, i32, i32, i32, ptr, ptr, ptr }
%class.id_gen = type { i32, %class.svector.4 }
%class.obj_map.281 = type { %class.core_hashtable.282 }
%class.core_hashtable.282 = type <{ ptr, i32, i32, i32, [4 x i8] }>
%class.decl = type { %class.ast, %class.symbol, ptr }
%class.ast = type { i32, i32, i32, i32 }
%class.app = type { %class.expr, ptr, i32, %struct.app_flags, [0 x ptr] }
%class.expr = type { %class.ast }
%struct.app_flags = type <{ i16, i8, i8 }>
%class.vector.427 = type { ptr }
%class.decl_info = type <{ i32, i32, %class.vector.427, i8, [7 x i8] }>

; Function Attrs: mustprogress nounwind uwtable
define linkonce_odr hidden noundef zeroext i1 @_ZNK9decl_info10is_decl_ofEii(ptr noundef nonnull align 8 dereferenceable(17) %0, i32 noundef %1, i32 noundef %2) #4 comdat align 2 {
  %4 = alloca ptr, align 8
  %5 = alloca i32, align 4
  %6 = alloca i32, align 4
  store ptr %0, ptr %4, align 8, !tbaa !2233
  store i32 %1, ptr %5, align 4, !tbaa !8
  store i32 %2, ptr %6, align 4, !tbaa !8
  %7 = load ptr, ptr %4, align 8
  %8 = getelementptr inbounds nuw %class.decl_info, ptr %7, i32 0, i32 0
  %9 = load i32, ptr %8, align 8, !tbaa !2234
  %10 = load i32, ptr %5, align 4, !tbaa !8
  %11 = icmp eq i32 %9, %10
  br i1 %11, label %12, label %17

12:                                               ; preds = %3
  %13 = load i32, ptr %6, align 4, !tbaa !8
  %14 = getelementptr inbounds nuw %class.decl_info, ptr %7, i32 0, i32 1
  %15 = load i32, ptr %14, align 4, !tbaa !2320
  %16 = icmp eq i32 %13, %15
  br label %17

17:                                               ; preds = %12, %3
  %18 = phi i1 [ false, %3 ], [ %16, %12 ]
  ret i1 %18
}

; Function Attrs: mustprogress uwtable
define linkonce_odr hidden noundef zeroext i1 @_ZNK4decl10is_decl_ofEii(ptr noundef nonnull align 8 dereferenceable(32) %0, i32 noundef %1, i32 noundef %2) #6 comdat align 2 {
  %4 = alloca ptr, align 8
  %5 = alloca i32, align 4
  %6 = alloca i32, align 4
  store ptr %0, ptr %4, align 8, !tbaa !896
  store i32 %1, ptr %5, align 4, !tbaa !8
  store i32 %2, ptr %6, align 4, !tbaa !8
  %7 = load ptr, ptr %4, align 8
  %8 = getelementptr inbounds nuw %class.decl, ptr %7, i32 0, i32 2
  %9 = load ptr, ptr %8, align 8, !tbaa !898
  %10 = icmp ne ptr %9, null
  br i1 %10, label %11, label %17

11:                                               ; preds = %3
  %12 = getelementptr inbounds nuw %class.decl, ptr %7, i32 0, i32 2
  %13 = load ptr, ptr %12, align 8, !tbaa !898
  %14 = load i32, ptr %5, align 4, !tbaa !8
  %15 = load i32, ptr %6, align 4, !tbaa !8
  %16 = call noundef zeroext i1 @_ZNK9decl_info10is_decl_ofEii(ptr noundef nonnull align 8 dereferenceable(17) %13, i32 noundef %14, i32 noundef %15)
  br label %17

17:                                               ; preds = %11, %3
  %18 = phi i1 [ false, %3 ], [ %16, %11 ]
  ret i1 %18
}

; Function Attrs: mustprogress uwtable
define linkonce_odr hidden noundef zeroext i1 @_ZNK3app9is_app_ofEii(ptr noundef nonnull align 8 dereferenceable(32) %0, i32 noundef %1, i32 noundef %2) #6 comdat align 2 {
  %4 = alloca ptr, align 8
  %5 = alloca i32, align 4
  %6 = alloca i32, align 4
  store ptr %0, ptr %4, align 8, !tbaa !730
  store i32 %1, ptr %5, align 4, !tbaa !8
  store i32 %2, ptr %6, align 4, !tbaa !8
  %7 = load ptr, ptr %4, align 8
  %8 = getelementptr inbounds nuw %class.app, ptr %7, i32 0, i32 1
  %9 = load ptr, ptr %8, align 8, !tbaa !1827
  %10 = load i32, ptr %5, align 4, !tbaa !8
  %11 = load i32, ptr %6, align 4, !tbaa !8
  %12 = call noundef zeroext i1 @_ZNK4decl10is_decl_ofEii(ptr noundef nonnull align 8 dereferenceable(32) %9, i32 noundef %10, i32 noundef %11)
  ret i1 %12
}

; Function Attrs: mustprogress nounwind uwtable
define linkonce_odr hidden noundef i32 @_ZNK9decl_info13get_family_idEv(ptr noundef nonnull align 8 dereferenceable(17) %0) #4 comdat align 2 {
  %2 = alloca ptr, align 8
  store ptr %0, ptr %2, align 8, !tbaa !2233
  %3 = load ptr, ptr %2, align 8
  %4 = getelementptr inbounds nuw %class.decl_info, ptr %3, i32 0, i32 0
  %5 = load i32, ptr %4, align 8, !tbaa !2234
  ret i32 %5
}

; Function Attrs: inlinehint mustprogress uwtable
define linkonce_odr hidden noundef zeroext i1 @_Z9is_app_ofPK4exprii(ptr noundef %0, i32 noundef %1, i32 noundef %2) #10 comdat {
  %4 = alloca ptr, align 8
  %5 = alloca i32, align 4
  %6 = alloca i32, align 4
  store ptr %0, ptr %4, align 8, !tbaa !846
  store i32 %1, ptr %5, align 4, !tbaa !8
  store i32 %2, ptr %6, align 4, !tbaa !8
  %7 = load ptr, ptr %4, align 8, !tbaa !846
  %8 = call noundef i32 @_ZNK3ast8get_kindEv(ptr noundef nonnull align 4 dereferenceable(16) %7)
  %9 = icmp eq i32 %8, 0
  br i1 %9, label %10, label %16

10:                                               ; preds = %3
  %11 = load ptr, ptr %4, align 8, !tbaa !846
  %12 = call noundef ptr @_Z6to_appPK3ast(ptr noundef %11)
  %13 = load i32, ptr %5, align 4, !tbaa !8
  %14 = load i32, ptr %6, align 4, !tbaa !8
  %15 = call noundef zeroext i1 @_ZNK3app9is_app_ofEii(ptr noundef nonnull align 8 dereferenceable(32) %12, i32 noundef %13, i32 noundef %14)
  br label %16

16:                                               ; preds = %10, %3
  %17 = phi i1 [ false, %3 ], [ %15, %10 ]
  ret i1 %17
}

; Function Attrs: mustprogress uwtable
define linkonce_odr hidden noundef i32 @_ZNK4decl13get_family_idEv(ptr noundef nonnull align 8 dereferenceable(32) %0) #6 comdat align 2 {
  %2 = alloca ptr, align 8
  store ptr %0, ptr %2, align 8, !tbaa !896
  %3 = load ptr, ptr %2, align 8
  %4 = getelementptr inbounds nuw %class.decl, ptr %3, i32 0, i32 2
  %5 = load ptr, ptr %4, align 8, !tbaa !898
  %6 = icmp eq ptr %5, null
  br i1 %6, label %7, label %8

7:                                                ; preds = %1
  br label %12

8:                                                ; preds = %1
  %9 = getelementptr inbounds nuw %class.decl, ptr %3, i32 0, i32 2
  %10 = load ptr, ptr %9, align 8, !tbaa !898
  %11 = call noundef i32 @_ZNK9decl_info13get_family_idEv(ptr noundef nonnull align 8 dereferenceable(17) %10)
  br label %12

12:                                               ; preds = %8, %7
  %13 = phi i32 [ -1, %7 ], [ %11, %8 ]
  ret i32 %13
}

; Function Attrs: mustprogress nounwind uwtable
define linkonce_odr hidden noundef ptr @_ZNK3app8get_declEv(ptr noundef nonnull align 8 dereferenceable(32) %0) #4 comdat align 2 {
  %2 = alloca ptr, align 8
  store ptr %0, ptr %2, align 8, !tbaa !730
  %3 = load ptr, ptr %2, align 8
  %4 = getelementptr inbounds nuw %class.app, ptr %3, i32 0, i32 1
  %5 = load ptr, ptr %4, align 8, !tbaa !1827
  ret ptr %5
}

; Function Attrs: mustprogress nounwind uwtable
define linkonce_odr hidden noundef ptr @_ZNK3app7get_argEj(ptr noundef nonnull align 8 dereferenceable(32) %0, i32 noundef %1) #4 comdat align 2 {
  %3 = alloca ptr, align 8
  %4 = alloca i32, align 4
  store ptr %0, ptr %3, align 8, !tbaa !730
  store i32 %1, ptr %4, align 4, !tbaa !8
  %5 = load ptr, ptr %3, align 8
  %6 = getelementptr inbounds nuw %class.app, ptr %5, i32 0, i32 4
  %7 = load i32, ptr %4, align 4, !tbaa !8
  %8 = zext i32 %7 to i64
  %9 = getelementptr inbounds nuw [0 x ptr], ptr %6, i64 0, i64 %8
  %10 = load ptr, ptr %9, align 8, !tbaa !846
  ret ptr %10
}

; Function Attrs: mustprogress uwtable
define linkonce_odr hidden noundef zeroext i1 @_ZNK11ast_manager6is_notEPK4expr(ptr noundef nonnull align 8 dereferenceable(976) %0, ptr noundef %1) #6 comdat align 2 {
  %3 = alloca ptr, align 8
  %4 = alloca ptr, align 8
  store ptr %0, ptr %3, align 8, !tbaa !30
  store ptr %1, ptr %4, align 8, !tbaa !846
  %5 = load ptr, ptr %4, align 8, !tbaa !846
  %6 = call noundef zeroext i1 @_Z9is_app_ofPK4exprii(ptr noundef %5, i32 noundef 0, i32 noundef 8)
  ret i1 %6
}

; Function Attrs: inlinehint mustprogress nounwind uwtable
define linkonce_odr hidden noundef ptr @_Z6to_appPK3ast(ptr noundef %0) #7 comdat {
  %2 = alloca ptr, align 8
  store ptr %0, ptr %2, align 8, !tbaa !902
  %3 = load ptr, ptr %2, align 8, !tbaa !902
  ret ptr %3
}

; Function Attrs: mustprogress nounwind uwtable
define linkonce_odr hidden noundef i32 @_ZNK3ast8get_kindEv(ptr noundef nonnull align 4 dereferenceable(16) %0) #4 comdat align 2 {
  %2 = alloca ptr, align 8
  store ptr %0, ptr %2, align 8, !tbaa !902
  %3 = load ptr, ptr %2, align 8
  %4 = getelementptr inbounds nuw %class.ast, ptr %3, i32 0, i32 1
  %5 = load i32, ptr %4, align 4
  %6 = and i32 %5, 65535
  ret i32 %6
}

; Function Attrs: mustprogress nounwind uwtable
define linkonce_odr hidden noundef i32 @_ZNK3app12get_num_argsEv(ptr noundef nonnull align 8 dereferenceable(32) %0) #4 comdat align 2 {
  %2 = alloca ptr, align 8
  store ptr %0, ptr %2, align 8, !tbaa !730
  %3 = load ptr, ptr %2, align 8
  %4 = getelementptr inbounds nuw %class.app, ptr %3, i32 0, i32 2
  %5 = load i32, ptr %4, align 8, !tbaa !1133
  ret i32 %5
}

; Function Attrs: mustprogress nounwind uwtable
define linkonce_odr hidden noundef i32 @_ZNK11ast_manager19get_basic_family_idEv(ptr noundef nonnull align 8 dereferenceable(976) %0) #4 comdat align 2 {
  %2 = alloca ptr, align 8
  store ptr %0, ptr %2, align 8, !tbaa !30
  ret i32 0
}

; Function Attrs: mustprogress uwtable
define linkonce_odr hidden noundef i32 @_ZNK3app13get_family_idEv(ptr noundef nonnull align 8 dereferenceable(32) %0) #6 comdat align 2 {
  %2 = alloca ptr, align 8
  store ptr %0, ptr %2, align 8, !tbaa !730
  %3 = load ptr, ptr %2, align 8
  %4 = call noundef ptr @_ZNK3app8get_declEv(ptr noundef nonnull align 8 dereferenceable(32) %3)
  %5 = call noundef i32 @_ZNK4decl13get_family_idEv(ptr noundef nonnull align 8 dereferenceable(32) %4)
  ret i32 %5
}

; Function Attrs: inlinehint mustprogress nounwind uwtable
define linkonce_odr hidden noundef ptr @_Z6to_appP3ast(ptr noundef %0) #7 comdat {
  %2 = alloca ptr, align 8
  store ptr %0, ptr %2, align 8, !tbaa !902
  %3 = load ptr, ptr %2, align 8, !tbaa !902
  ret ptr %3
}

; Function Attrs: mustprogress nounwind uwtable
define linkonce_odr hidden noundef zeroext i1 @_ZNK11ast_manager8is_falseEPK4expr(ptr noundef nonnull align 8 dereferenceable(976) %0, ptr noundef %1) #4 comdat align 2 {
  %3 = alloca ptr, align 8
  %4 = alloca ptr, align 8
  store ptr %0, ptr %3, align 8, !tbaa !30
  store ptr %1, ptr %4, align 8, !tbaa !846
  %5 = load ptr, ptr %3, align 8
  %6 = load ptr, ptr %4, align 8, !tbaa !846
  %7 = getelementptr inbounds nuw %class.ast_manager, ptr %5, i32 0, i32 16
  %8 = load ptr, ptr %7, align 8, !tbaa !894
  %9 = icmp eq ptr %6, %8
  ret i1 %9
}

; Function Attrs: mustprogress nounwind uwtable
define linkonce_odr hidden noundef zeroext i1 @_ZNK11ast_manager7is_trueEPK4expr(ptr noundef nonnull align 8 dereferenceable(976) %0, ptr noundef %1) #4 comdat align 2 {
  %3 = alloca ptr, align 8
  %4 = alloca ptr, align 8
  store ptr %0, ptr %3, align 8, !tbaa !30
  store ptr %1, ptr %4, align 8, !tbaa !846
  %5 = load ptr, ptr %3, align 8
  %6 = load ptr, ptr %4, align 8, !tbaa !846
  %7 = getelementptr inbounds nuw %class.ast_manager, ptr %5, i32 0, i32 15
  %8 = load ptr, ptr %7, align 8, !tbaa !847
  %9 = icmp eq ptr %6, %8
  ret i1 %9
}

; Function Attrs: inlinehint mustprogress nounwind uwtable
define linkonce_odr hidden noundef zeroext i1 @_Z6is_appPK3ast(ptr noundef %0) #7 comdat {
  %2 = alloca ptr, align 8
  store ptr %0, ptr %2, align 8, !tbaa !902
  %3 = load ptr, ptr %2, align 8, !tbaa !902
  %4 = call noundef i32 @_ZNK3ast8get_kindEv(ptr noundef nonnull align 4 dereferenceable(16) %3)
  %5 = icmp eq i32 %4, 0
  ret i1 %5
}

; Function Attrs: mustprogress uwtable
define linkonce_odr hidden noundef zeroext i1 @_ZNK11ast_manager6is_notEPK4exprRPS0_(ptr noundef nonnull align 8 dereferenceable(976) %0, ptr noundef %1, ptr noundef nonnull align 8 dereferenceable(8) %2) #6 comdat align 2 {
  %4 = alloca i1, align 1
  %5 = alloca ptr, align 8
  %6 = alloca ptr, align 8
  %7 = alloca ptr, align 8
  store ptr %0, ptr %5, align 8, !tbaa !30
  store ptr %1, ptr %6, align 8, !tbaa !846
  store ptr %2, ptr %7, align 8, !tbaa !905
  %8 = load ptr, ptr %5, align 8
  %9 = load ptr, ptr %6, align 8, !tbaa !846
  %10 = call noundef zeroext i1 @_ZNK11ast_manager6is_notEPK4expr(ptr noundef nonnull align 8 dereferenceable(976) %8, ptr noundef %9)
  br i1 %10, label %11, label %21

11:                                               ; preds = %3
  %12 = load ptr, ptr %6, align 8, !tbaa !846
  %13 = call noundef ptr @_Z6to_appPK3ast(ptr noundef %12)
  %14 = call noundef i32 @_ZNK3app12get_num_argsEv(ptr noundef nonnull align 8 dereferenceable(32) %13)
  %15 = icmp eq i32 %14, 1
  br i1 %15, label %16, label %21

16:                                               ; preds = %11
  %17 = load ptr, ptr %6, align 8, !tbaa !846
  %18 = call noundef ptr @_Z6to_appPK3ast(ptr noundef %17)
  %19 = call noundef ptr @_ZNK3app7get_argEj(ptr noundef nonnull align 8 dereferenceable(32) %18, i32 noundef 0)
  %20 = load ptr, ptr %7, align 8, !tbaa !905
  store ptr %19, ptr %20, align 8, !tbaa !846
  store i1 true, ptr %4, align 1
  br label %22

21:                                               ; preds = %11, %3
  store i1 false, ptr %4, align 1
  br label %22

22:                                               ; preds = %21, %16
  %23 = load i1, ptr %4, align 1
  ret i1 %23
}

; Function Attrs: inlinehint mustprogress uwtable
define linkonce_odr hidden noundef zeroext i1 @_Z17is_uninterp_constPK4expr(ptr noundef %0) #10 comdat {
  %2 = alloca ptr, align 8
  store ptr %0, ptr %2, align 8, !tbaa !846
  %3 = load ptr, ptr %2, align 8, !tbaa !846
  %4 = call noundef i32 @_ZNK3ast8get_kindEv(ptr noundef nonnull align 4 dereferenceable(16) %3)
  %5 = icmp eq i32 %4, 0
  br i1 %5, label %6, label %16

6:                                                ; preds = %1
  %7 = load ptr, ptr %2, align 8, !tbaa !846
  %8 = call noundef ptr @_Z6to_appPK3ast(ptr noundef %7)
  %9 = call noundef i32 @_ZNK3app12get_num_argsEv(ptr noundef nonnull align 8 dereferenceable(32) %8)
  %10 = icmp eq i32 %9, 0
  br i1 %10, label %11, label %16

11:                                               ; preds = %6
  %12 = load ptr, ptr %2, align 8, !tbaa !846
  %13 = call noundef ptr @_Z6to_appPK3ast(ptr noundef %12)
  %14 = call noundef i32 @_ZNK3app13get_family_idEv(ptr noundef nonnull align 8 dereferenceable(32) %13)
  %15 = icmp eq i32 %14, -1
  br label %16

16:                                               ; preds = %11, %6, %1
  %17 = phi i1 [ false, %6 ], [ false, %1 ], [ %15, %11 ]
  ret i1 %17
}

; Function Attrs: mustprogress uwtable
define internal noundef zeroext i1 @_ZN3smtL19is_valid_assumptionER11ast_managerP4expr(ptr noundef nonnull align 8 dereferenceable(976) %0, ptr noundef %1) #6 {
  %3 = alloca i1, align 1
  %4 = alloca ptr, align 8
  %5 = alloca ptr, align 8
  %6 = alloca ptr, align 8
  %7 = alloca i32, align 4
  store ptr %0, ptr %4, align 8, !tbaa !30
  store ptr %1, ptr %5, align 8, !tbaa !846
  call void @llvm.lifetime.start.p0(i64 8, ptr %6) #3
  %8 = load ptr, ptr %4, align 8, !tbaa !30
  %9 = load ptr, ptr %5, align 8, !tbaa !846
  %10 = call noundef zeroext i1 @_ZNK11ast_manager7is_boolEPK4expr(ptr noundef nonnull align 8 dereferenceable(976) %8, ptr noundef %9)
  br i1 %10, label %12, label %11

11:                                               ; preds = %2
  store i1 false, ptr %3, align 1
  store i32 1, ptr %7, align 4
  br label %58

12:                                               ; preds = %2
  %13 = load ptr, ptr %5, align 8, !tbaa !846
  %14 = call noundef zeroext i1 @_Z17is_uninterp_constPK4expr(ptr noundef %13)
  br i1 %14, label %15, label %16

15:                                               ; preds = %12
  store i1 true, ptr %3, align 1
  store i32 1, ptr %7, align 4
  br label %58

16:                                               ; preds = %12
  %17 = load ptr, ptr %4, align 8, !tbaa !30
  %18 = load ptr, ptr %5, align 8, !tbaa !846
  %19 = call noundef zeroext i1 @_ZNK11ast_manager6is_notEPK4exprRPS0_(ptr noundef nonnull align 8 dereferenceable(976) %17, ptr noundef %18, ptr noundef nonnull align 8 dereferenceable(8) %6)
  br i1 %19, label %20, label %24

20:                                               ; preds = %16
  %21 = load ptr, ptr %6, align 8, !tbaa !846
  %22 = call noundef zeroext i1 @_Z17is_uninterp_constPK4expr(ptr noundef %21)
  br i1 %22, label %23, label %24

23:                                               ; preds = %20
  store i1 true, ptr %3, align 1
  store i32 1, ptr %7, align 4
  br label %58

24:                                               ; preds = %20, %16
  %25 = load ptr, ptr %5, align 8, !tbaa !846
  %26 = call noundef zeroext i1 @_Z6is_appPK3ast(ptr noundef %25)
  br i1 %26, label %28, label %27

27:                                               ; preds = %24
  store i1 false, ptr %3, align 1
  store i32 1, ptr %7, align 4
  br label %58

28:                                               ; preds = %24
  %29 = load ptr, ptr %4, align 8, !tbaa !30
  %30 = load ptr, ptr %5, align 8, !tbaa !846
  %31 = call noundef zeroext i1 @_ZNK11ast_manager7is_trueEPK4expr(ptr noundef nonnull align 8 dereferenceable(976) %29, ptr noundef %30)
  br i1 %31, label %36, label %32

32:                                               ; preds = %28
  %33 = load ptr, ptr %4, align 8, !tbaa !30
  %34 = load ptr, ptr %5, align 8, !tbaa !846
  %35 = call noundef zeroext i1 @_ZNK11ast_manager8is_falseEPK4expr(ptr noundef nonnull align 8 dereferenceable(976) %33, ptr noundef %34)
  br i1 %35, label %36, label %37

36:                                               ; preds = %32, %28
  store i1 true, ptr %3, align 1
  store i32 1, ptr %7, align 4
  br label %58

37:                                               ; preds = %32
  %38 = load ptr, ptr %5, align 8, !tbaa !846
  %39 = call noundef zeroext i1 @_Z6is_appPK3ast(ptr noundef %38)
  br i1 %39, label %40, label %48

40:                                               ; preds = %37
  %41 = load ptr, ptr %5, align 8, !tbaa !846
  %42 = call noundef ptr @_Z6to_appP3ast(ptr noundef %41)
  %43 = call noundef i32 @_ZNK3app13get_family_idEv(ptr noundef nonnull align 8 dereferenceable(32) %42)
  %44 = load ptr, ptr %4, align 8, !tbaa !30
  %45 = call noundef i32 @_ZNK11ast_manager19get_basic_family_idEv(ptr noundef nonnull align 8 dereferenceable(976) %44)
  %46 = icmp eq i32 %43, %45
  br i1 %46, label %47, label %48

47:                                               ; preds = %40
  store i1 false, ptr %3, align 1
  store i32 1, ptr %7, align 4
  br label %58

48:                                               ; preds = %40, %37
  %49 = load ptr, ptr %5, align 8, !tbaa !846
  %50 = call noundef zeroext i1 @_Z6is_appPK3ast(ptr noundef %49)
  br i1 %50, label %51, label %57

51:                                               ; preds = %48
  %52 = load ptr, ptr %5, align 8, !tbaa !846
  %53 = call noundef ptr @_Z6to_appP3ast(ptr noundef %52)
  %54 = call noundef i32 @_ZNK3app12get_num_argsEv(ptr noundef nonnull align 8 dereferenceable(32) %53)
  %55 = icmp eq i32 %54, 0
  br i1 %55, label %56, label %57

56:                                               ; preds = %51
  store i1 true, ptr %3, align 1
  store i32 1, ptr %7, align 4
  br label %58

57:                                               ; preds = %51, %48
  store i1 false, ptr %3, align 1
  store i32 1, ptr %7, align 4
  br label %58

58:                                               ; preds = %57, %56, %47, %36, %27, %23, %15, %11
  call void @llvm.lifetime.end.p0(i64 8, ptr %6) #3
  %59 = load i1, ptr %3, align 1
  ret i1 %59
}