; Function Attrs: mustprogress uwtable
define internal fastcc noundef zeroext i1 @_ZN3smtL19is_valid_assumptionER11ast_managerP4expr(ptr noundef nonnull align 8 dereferenceable(976) %0, ptr noundef %1) unnamed_addr #4 {
  %3 = tail call noundef zeroext i1 @_ZNK11ast_manager7is_boolEPK4expr(ptr noundef nonnull align 8 dereferenceable(976) %0, ptr noundef %1)
  br i1 %3, label %4, label %_Z17is_uninterp_constPK4expr.exit.thread18

4:                                                ; preds = %2
  %5 = getelementptr inbounds nuw i8, ptr %1, i64 4
  %6 = load i32, ptr %5, align 4
  %7 = and i32 %6, 65535
  %8 = icmp eq i32 %7, 0
  br i1 %8, label %9, label %_Z17is_uninterp_constPK4expr.exit.thread18

9:                                                ; preds = %4
  %10 = getelementptr inbounds nuw i8, ptr %1, i64 24
  %11 = load i32, ptr %10, align 8, !tbaa !892
  %12 = icmp eq i32 %11, 0
  %13 = getelementptr inbounds nuw i8, ptr %1, i64 16
  %14 = load ptr, ptr %13, align 8, !tbaa !931
  %15 = getelementptr inbounds nuw i8, ptr %14, i64 24
  %16 = load ptr, ptr %15, align 8, !tbaa !846
  %17 = icmp eq ptr %16, null
  br i1 %12, label %18, label %.thread19

18:                                               ; preds = %9
  br i1 %17, label %_Z17is_uninterp_constPK4expr.exit.thread18, label %_Z17is_uninterp_constPK4expr.exit

_Z17is_uninterp_constPK4expr.exit:                ; preds = %18
  %19 = load i32, ptr %16, align 8, !tbaa !849
  %20 = icmp eq i32 %19, -1
  br i1 %20, label %_Z17is_uninterp_constPK4expr.exit.thread18, label %.thread23

.thread19:                                        ; preds = %9
  br i1 %17, label %.thread23, label %_ZNK11ast_manager6is_notEPK4expr.exit.i

_ZNK11ast_manager6is_notEPK4expr.exit.i:          ; preds = %.thread19
  %21 = load i32, ptr %16, align 8, !tbaa !849
  %22 = icmp eq i32 %21, 0
  %23 = getelementptr inbounds nuw i8, ptr %16, i64 4
  %24 = load i32, ptr %23, align 4
  %25 = icmp eq i32 %24, 8
  %26 = select i1 %22, i1 %25, i1 false
  %27 = icmp eq i32 %11, 1
  %or.cond38 = and i1 %26, %27
  br i1 %or.cond38, label %28, label %.thread23

28:                                               ; preds = %_ZNK11ast_manager6is_notEPK4expr.exit.i
  %29 = getelementptr inbounds nuw i8, ptr %1, i64 32
  %30 = load ptr, ptr %29, align 8, !tbaa !719
  %31 = getelementptr inbounds nuw i8, ptr %30, i64 4
  %32 = load i32, ptr %31, align 4
  %33 = and i32 %32, 65535
  %34 = icmp eq i32 %33, 0
  br i1 %34, label %35, label %.thread23

35:                                               ; preds = %28
  %36 = getelementptr inbounds nuw i8, ptr %30, i64 24
  %37 = load i32, ptr %36, align 8, !tbaa !892
  %38 = icmp eq i32 %37, 0
  br i1 %38, label %39, label %.thread23

39:                                               ; preds = %35
  %40 = getelementptr inbounds nuw i8, ptr %30, i64 16
  %41 = load ptr, ptr %40, align 8, !tbaa !931
  %42 = getelementptr inbounds nuw i8, ptr %41, i64 24
  %43 = load ptr, ptr %42, align 8, !tbaa !846
  %44 = icmp eq ptr %43, null
  br i1 %44, label %_Z17is_uninterp_constPK4expr.exit.thread18, label %_Z17is_uninterp_constPK4expr.exit16

_Z17is_uninterp_constPK4expr.exit16:              ; preds = %39
  %45 = load i32, ptr %43, align 8, !tbaa !849
  %46 = icmp eq i32 %45, -1
  %47 = getelementptr inbounds nuw i8, ptr %0, i64 856
  %48 = load ptr, ptr %47, align 8
  %49 = icmp eq ptr %1, %48
  %or.cond = select i1 %46, i1 true, i1 %49
  br i1 %or.cond, label %_Z17is_uninterp_constPK4expr.exit.thread18, label %51

.thread23:                                        ; preds = %_Z17is_uninterp_constPK4expr.exit, %.thread19, %_ZNK11ast_manager6is_notEPK4expr.exit.i, %28, %35
  %.not.i.i.i.i.i33 = phi i1 [ true, %.thread19 ], [ false, %_ZNK11ast_manager6is_notEPK4expr.exit.i ], [ false, %28 ], [ false, %35 ], [ false, %_Z17is_uninterp_constPK4expr.exit ]
  %50 = phi ptr [ null, %.thread19 ], [ %16, %_ZNK11ast_manager6is_notEPK4expr.exit.i ], [ %16, %28 ], [ %16, %35 ], [ %16, %_Z17is_uninterp_constPK4expr.exit ]
  %.old = getelementptr inbounds nuw i8, ptr %0, i64 856
  %.old26 = load ptr, ptr %.old, align 8, !tbaa !658
  %.old27 = icmp eq ptr %1, %.old26
  br i1 %.old27, label %_Z17is_uninterp_constPK4expr.exit.thread18, label %51

51:                                               ; preds = %_Z17is_uninterp_constPK4expr.exit16, %.thread23
  %.not.i.i.i.i.i31 = phi i1 [ false, %_Z17is_uninterp_constPK4expr.exit16 ], [ %.not.i.i.i.i.i33, %.thread23 ]
  %52 = phi ptr [ %16, %_Z17is_uninterp_constPK4expr.exit16 ], [ %50, %.thread23 ]
  %53 = getelementptr inbounds nuw i8, ptr %0, i64 864
  %54 = load ptr, ptr %53, align 8, !tbaa !711
  %55 = icmp eq ptr %1, %54
  br i1 %55, label %_Z17is_uninterp_constPK4expr.exit.thread18, label %56

56:                                               ; preds = %51
  br i1 %.not.i.i.i.i.i31, label %_ZNK3app13get_family_idEv.exit.thread, label %_ZNK3app13get_family_idEv.exit

_ZNK3app13get_family_idEv.exit:                   ; preds = %56
  %57 = load i32, ptr %52, align 8, !tbaa !849
  %58 = icmp eq i32 %57, 0
  br i1 %58, label %_Z17is_uninterp_constPK4expr.exit.thread18, label %_ZNK3app13get_family_idEv.exit.thread

_ZNK3app13get_family_idEv.exit.thread:            ; preds = %56, %_ZNK3app13get_family_idEv.exit
  br label %_Z17is_uninterp_constPK4expr.exit.thread18

_Z17is_uninterp_constPK4expr.exit.thread18:       ; preds = %_ZNK3app13get_family_idEv.exit.thread, %39, %18, %4, %_ZNK3app13get_family_idEv.exit, %.thread23, %51, %_Z17is_uninterp_constPK4expr.exit16, %_Z17is_uninterp_constPK4expr.exit, %2
  %.0 = phi i1 [ false, %2 ], [ true, %_Z17is_uninterp_constPK4expr.exit ], [ true, %_Z17is_uninterp_constPK4expr.exit16 ], [ true, %51 ], [ true, %.thread23 ], [ false, %_ZNK3app13get_family_idEv.exit ], [ false, %4 ], [ true, %18 ], [ true, %39 ], [ %12, %_ZNK3app13get_family_idEv.exit.thread ]
  ret i1 %.0
}